; Function Attrs: nounwind uwtable
define ptr @l_Lean_IR_Decl_simpCase(ptr noundef %0) local_unnamed_addr #0 {
  %2 = ptrtoint ptr %0 to i64
  %3 = and i64 %2, 1
  %.not.i = icmp eq i64 %3, 0
  br i1 %.not.i, label %7, label %4

4:                                                ; preds = %1
  %5 = lshr i64 %2, 1
  %6 = trunc i64 %5 to i32
  br label %lean_obj_tag.exit

7:                                                ; preds = %1
  %8 = getelementptr i8, ptr %0, i64 4
  %.val.i = load i32, ptr %8, align 4
  %9 = lshr i32 %.val.i, 24
  br label %lean_obj_tag.exit

lean_obj_tag.exit:                                ; preds = %4, %7
  %.0.i = phi i32 [ %6, %4 ], [ %9, %7 ]
  %10 = icmp eq i32 %.0.i, 0
  br i1 %10, label %11, label %24

11:                                               ; preds = %lean_obj_tag.exit
  %12 = getelementptr inbounds nuw i8, ptr %0, i64 32
  %13 = load ptr, ptr %12, align 8, !tbaa !4
  %14 = ptrtoint ptr %13 to i64
  %15 = and i64 %14, 1
  %.not = icmp eq i64 %15, 0
  br i1 %.not, label %16, label %lean_inc.exit

16:                                               ; preds = %11
  %.val.i9 = load i32, ptr %13, align 4, !tbaa !8
  %17 = icmp sgt i32 %.val.i9, 0
  br i1 %17, label %18, label %20, !prof !11

18:                                               ; preds = %16
  %19 = add nuw i32 %.val.i9, 1
  store i32 %19, ptr %13, align 4, !tbaa !8
  br label %lean_inc.exit

20:                                               ; preds = %16
  %.not.i10 = icmp eq i32 %.val.i9, 0
  br i1 %.not.i10, label %lean_inc.exit, label %21

21:                                               ; preds = %20
  tail call void @lean_inc_ref_cold(ptr noundef nonnull %13) #3
  br label %lean_inc.exit

lean_inc.exit:                                    ; preds = %21, %20, %18, %11
  %22 = tail call ptr @l_Lean_IR_FnBody_simpCase(ptr noundef %13)
  %23 = tail call ptr @l_Lean_IR_Decl_updateBody_x21(ptr noundef nonnull %0, ptr noundef %22) #3
  br label %24

24:                                               ; preds = %lean_obj_tag.exit, %lean_inc.exit
  %.0 = phi ptr [ %23, %lean_inc.exit ], [ %0, %lean_obj_tag.exit ]
  ret ptr %.0
}